; ModuleID = '22/809.c'
source_filename = "22/809.c"
target datalayout = "e-m:e-p270:32:32-p271:32:32-p272:64:64-i64:64-f80:128-n8:16:32:64-S128"
target triple = "x86_64-pc-linux-gnu"

@.str = private unnamed_addr constant [3 x i8] c"%d\00", align 1
@.str.1 = private unnamed_addr constant [3 x i8] c"%c\00", align 1
@.str.2 = private unnamed_addr constant [3 x i8] c"No\00", align 1

; Function Attrs: noinline nounwind uwtable
define dso_local i32 @main() #0 {
  %1 = alloca i32, align 4
  %2 = alloca [100 x i32], align 16
  %3 = alloca i32, align 4
  %4 = alloca i32, align 4
  %5 = alloca i32, align 4
  %6 = alloca i8, align 1
  store i32 0, i32* %1, align 4
  store i32 0, i32* %3, align 4
  store i8 44, i8* %6, align 1
  br label %7

7:                                                ; preds = %11, %0
  %8 = load i8, i8* %6, align 1
  %9 = sext i8 %8 to i32
  %10 = icmp eq i32 %9, 44
  br i1 %10, label %11, label %19

11:                                               ; preds = %7
  %12 = load i32, i32* %3, align 4
  %13 = add nsw i32 %12, 1
  store i32 %13, i32* %3, align 4
  %14 = load i32, i32* %3, align 4
  %15 = sext i32 %14 to i64
  %16 = getelementptr inbounds [100 x i32], [100 x i32]* %2, i64 0, i64 %15
  %17 = call i32 (i8*, ...) @__isoc99_scanf(i8* getelementptr inbounds ([3 x i8], [3 x i8]* @.str, i64 0, i64 0), i32* %16)
  %18 = call i32 (i8*, ...) @__isoc99_scanf(i8* getelementptr inbounds ([3 x i8], [3 x i8]* @.str.1, i64 0, i64 0), i8* %6)
  br label %7

19:                                               ; preds = %7
  %20 = load i32, i32* %3, align 4
  store i32 %20, i32* %4, align 4
  %21 = load i32, i32* %4, align 4
  %22 = icmp eq i32 %21, 1
  br i1 %22, label %23, label %25

23:                                               ; preds = %19
  %24 = call i32 (i8*, ...) @printf(i8* getelementptr inbounds ([3 x i8], [3 x i8]* @.str.2, i64 0, i64 0))
  br label %159

25:                                               ; preds = %19
  %26 = load i32, i32* %4, align 4
  store i32 %26, i32* %3, align 4
  br label %27

27:                                               ; preds = %59, %25
  %28 = load i32, i32* %3, align 4
  %29 = icmp sge i32 %28, 2
  br i1 %29, label %30, label %62

30:                                               ; preds = %27
  %31 = load i32, i32* %3, align 4
  %32 = sub nsw i32 %31, 1
  %33 = sext i32 %32 to i64
  %34 = getelementptr inbounds [100 x i32], [100 x i32]* %2, i64 0, i64 %33
  %35 = load i32, i32* %34, align 4
  %36 = load i32, i32* %3, align 4
  %37 = sext i32 %36 to i64
  %38 = getelementptr inbounds [100 x i32], [100 x i32]* %2, i64 0, i64 %37
  %39 = load i32, i32* %38, align 4
  %40 = icmp ne i32 %35, %39
  br i1 %40, label %41, label %42

41:                                               ; preds = %30
  br label %62

42:                                               ; preds = %30
  %43 = load i32, i32* %3, align 4
  %44 = sub nsw i32 %43, 1
  %45 = sext i32 %44 to i64
  %46 = getelementptr inbounds [100 x i32], [100 x i32]* %2, i64 0, i64 %45
  %47 = load i32, i32* %46, align 4
  %48 = load i32, i32* %3, align 4
  %49 = sext i32 %48 to i64
  %50 = getelementptr inbounds [100 x i32], [100 x i32]* %2, i64 0, i64 %49
  %51 = load i32, i32* %50, align 4
  %52 = icmp eq i32 %47, %51
  br i1 %52, label %53, label %58

53:                                               ; preds = %42
  %54 = load i32, i32* %3, align 4
  %55 = icmp eq i32 %54, 2
  br i1 %55, label %56, label %58

56:                                               ; preds = %53
  %57 = call i32 (i8*, ...) @printf(i8* getelementptr inbounds ([3 x i8], [3 x i8]* @.str.2, i64 0, i64 0))
  br label %159

58:                                               ; preds = %53, %42
  br label %59

59:                                               ; preds = %58
  %60 = load i32, i32* %3, align 4
  %61 = add nsw i32 %60, -1
  store i32 %61, i32* %3, align 4
  br label %27

62:                                               ; preds = %41, %27
  %63 = load i32, i32* %4, align 4
  store i32 %63, i32* %3, align 4
  br label %64

64:                                               ; preds = %97, %62
  %65 = load i32, i32* %3, align 4
  %66 = icmp sge i32 %65, 2
  br i1 %66, label %67, label %100

67:                                               ; preds = %64
  %68 = load i32, i32* %3, align 4
  %69 = sub nsw i32 %68, 1
  %70 = sext i32 %69 to i64
  %71 = getelementptr inbounds [100 x i32], [100 x i32]* %2, i64 0, i64 %70
  %72 = load i32, i32* %71, align 4
  %73 = load i32, i32* %3, align 4
  %74 = sext i32 %73 to i64
  %75 = getelementptr inbounds [100 x i32], [100 x i32]* %2, i64 0, i64 %74
  %76 = load i32, i32* %75, align 4
  %77 = icmp slt i32 %72, %76
  br i1 %77, label %78, label %96

78:                                               ; preds = %67
  %79 = load i32, i32* %3, align 4
  %80 = sub nsw i32 %79, 1
  %81 = sext i32 %80 to i64
  %82 = getelementptr inbounds [100 x i32], [100 x i32]* %2, i64 0, i64 %81
  %83 = load i32, i32* %82, align 4
  store i32 %83, i32* %5, align 4
  %84 = load i32, i32* %3, align 4
  %85 = sext i32 %84 to i64
  %86 = getelementptr inbounds [100 x i32], [100 x i32]* %2, i64 0, i64 %85
  %87 = load i32, i32* %86, align 4
  %88 = load i32, i32* %3, align 4
  %89 = sub nsw i32 %88, 1
  %90 = sext i32 %89 to i64
  %91 = getelementptr inbounds [100 x i32], [100 x i32]* %2, i64 0, i64 %90
  store i32 %87, i32* %91, align 4
  %92 = load i32, i32* %5, align 4
  %93 = load i32, i32* %3, align 4
  %94 = sext i32 %93 to i64
  %95 = getelementptr inbounds [100 x i32], [100 x i32]* %2, i64 0, i64 %94
  store i32 %92, i32* %95, align 4
  br label %96

96:                                               ; preds = %78, %67
  br label %97

97:                                               ; preds = %96
  %98 = load i32, i32* %3, align 4
  %99 = add nsw i32 %98, -1
  store i32 %99, i32* %3, align 4
  br label %64

100:                                              ; preds = %64
  %101 = load i32, i32* %4, align 4
  store i32 %101, i32* %3, align 4
  br label %102

102:                                              ; preds = %152, %100
  %103 = load i32, i32* %3, align 4
  %104 = icmp sge i32 %103, 3
  br i1 %104, label %105, label %155

105:                                              ; preds = %102
  %106 = load i32, i32* %3, align 4
  %107 = sub nsw i32 %106, 1
  %108 = sext i32 %107 to i64
  %109 = getelementptr inbounds [100 x i32], [100 x i32]* %2, i64 0, i64 %108
  %110 = load i32, i32* %109, align 4
  %111 = load i32, i32* %3, align 4
  %112 = sext i32 %111 to i64
  %113 = getelementptr inbounds [100 x i32], [100 x i32]* %2, i64 0, i64 %112
  %114 = load i32, i32* %113, align 4
  %115 = icmp slt i32 %110, %114
  br i1 %115, label %116, label %124

116:                                              ; preds = %105
  %117 = load i32, i32* %3, align 4
  %118 = sext i32 %117 to i64
  %119 = getelementptr inbounds [100 x i32], [100 x i32]* %2, i64 0, i64 %118
  %120 = load i32, i32* %119, align 4
  %121 = getelementptr inbounds [100 x i32], [100 x i32]* %2, i64 0, i64 1
  %122 = load i32, i32* %121, align 4
  %123 = icmp ne i32 %120, %122
  br i1 %123, label %133, label %124

124:                                              ; preds = %116, %105
  %125 = load i32, i32* %3, align 4
  %126 = sub nsw i32 %125, 1
  %127 = sext i32 %126 to i64
  %128 = getelementptr inbounds [100 x i32], [100 x i32]* %2, i64 0, i64 %127
  %129 = load i32, i32* %128, align 4
  %130 = getelementptr inbounds [100 x i32], [100 x i32]* %2, i64 0, i64 1
  %131 = load i32, i32* %130, align 4
  %132 = icmp eq i32 %129, %131
  br i1 %132, label %133, label %151

133:                                              ; preds = %124, %116
  %134 = load i32, i32* %3, align 4
  %135 = sub nsw i32 %134, 1
  %136 = sext i32 %135 to i64
  %137 = getelementptr inbounds [100 x i32], [100 x i32]* %2, i64 0, i64 %136
  %138 = load i32, i32* %137, align 4
  store i32 %138, i32* %5, align 4
  %139 = load i32, i32* %3, align 4
  %140 = sext i32 %139 to i64
  %141 = getelementptr inbounds [100 x i32], [100 x i32]* %2, i64 0, i64 %140
  %142 = load i32, i32* %141, align 4
  %143 = load i32, i32* %3, align 4
  %144 = sub nsw i32 %143, 1
  %145 = sext i32 %144 to i64
  %146 = getelementptr inbounds [100 x i32], [100 x i32]* %2, i64 0, i64 %145
  store i32 %142, i32* %146, align 4
  %147 = load i32, i32* %5, align 4
  %148 = load i32, i32* %3, align 4
  %149 = sext i32 %148 to i64
  %150 = getelementptr inbounds [100 x i32], [100 x i32]* %2, i64 0, i64 %149
  store i32 %147, i32* %150, align 4
  br label %151

151:                                              ; preds = %133, %124
  br label %152

152:                                              ; preds = %151
  %153 = load i32, i32* %3, align 4
  %154 = add nsw i32 %153, -1
  store i32 %154, i32* %3, align 4
  br label %102

155:                                              ; preds = %102
  %156 = getelementptr inbounds [100 x i32], [100 x i32]* %2, i64 0, i64 2
  %157 = load i32, i32* %156, align 8
  %158 = call i32 (i8*, ...) @printf(i8* getelementptr inbounds ([3 x i8], [3 x i8]* @.str, i64 0, i64 0), i32 %157)
  br label %159

159:                                              ; preds = %155, %56, %23
  ret i32 0
}

declare dso_local i32 @__isoc99_scanf(i8*, ...) #1

declare dso_local i32 @printf(i8*, ...) #1


!llvm.module.flags = !{!0}
!llvm.ident = !{!1}

!0 = !{i32 1, !"wchar_size", i32 4}
!1 = !{!"clang version 10.0.0-4ubuntu1 "}
